; Function Attrs: mustprogress nounwind uwtable
define internal fastcc void @_ZNSt11_Tuple_implILm2EJN8pybind116detail11type_casterINS0_7array_tIdLi16EEEvEENS2_INS3_IiLi16EEEvEENS2_IivEENS2_IZ30test_submodule_numpy_vectorizeRNS0_7module_EE11NonPODClassvEES5_EED2Ev(ptr nocapture noundef nonnull readonly align 8 dereferenceable(56) %0) unnamed_addr #0 align 2 personality ptr @__gxx_personality_v0 {
  %2 = getelementptr inbounds i8, ptr %0, i64 48
  %3 = load ptr, ptr %2, align 8
  %.not.i.i.i.i.i.i.i.i.i = icmp eq ptr %3, null
  br i1 %.not.i.i.i.i.i.i.i.i.i, label %_ZNSt10_Head_baseILm2EN8pybind116detail11type_casterINS0_7array_tIdLi16EEEvEELb0EED2Ev.exit, label %4

4:                                                ; preds = %1
  %5 = load i64, ptr %3, align 8
  %6 = add nsw i64 %5, -1
  store i64 %6, ptr %3, align 8
  %.not.i.i.i.i.i.i.i.i.i.i = icmp eq i64 %6, 0
  br i1 %.not.i.i.i.i.i.i.i.i.i.i, label %7, label %_ZNSt10_Head_baseILm2EN8pybind116detail11type_casterINS0_7array_tIdLi16EEEvEELb0EED2Ev.exit

7:                                                ; preds = %4
  invoke void @_Py_Dealloc(ptr noundef nonnull %3)
          to label %_ZNSt10_Head_baseILm2EN8pybind116detail11type_casterINS0_7array_tIdLi16EEEvEELb0EED2Ev.exit unwind label %8

8:                                                ; preds = %7
  %9 = landingpad { ptr, i32 }
          catch ptr null
  %10 = extractvalue { ptr, i32 } %9, 0
  tail call void @__clang_call_terminate(ptr %10) #26
  unreachable

_ZNSt10_Head_baseILm2EN8pybind116detail11type_casterINS0_7array_tIdLi16EEEvEELb0EED2Ev.exit: ; preds = %1, %4, %7
  %11 = getelementptr inbounds i8, ptr %0, i64 40
  %12 = load ptr, ptr %11, align 8
  %.not.i.i.i.i.i.i.i.i.i.i1 = icmp eq ptr %12, null
  br i1 %.not.i.i.i.i.i.i.i.i.i.i1, label %_ZNSt10_Head_baseILm3EN8pybind116detail11type_casterINS0_7array_tIiLi16EEEvEELb0EED2Ev.exit.i, label %13

13:                                               ; preds = %_ZNSt10_Head_baseILm2EN8pybind116detail11type_casterINS0_7array_tIdLi16EEEvEELb0EED2Ev.exit
  %14 = load i64, ptr %12, align 8
  %15 = add nsw i64 %14, -1
  store i64 %15, ptr %12, align 8
  %.not.i.i.i.i.i.i.i.i.i.i.i = icmp eq i64 %15, 0
  br i1 %.not.i.i.i.i.i.i.i.i.i.i.i, label %16, label %_ZNSt10_Head_baseILm3EN8pybind116detail11type_casterINS0_7array_tIiLi16EEEvEELb0EED2Ev.exit.i

16:                                               ; preds = %13
  invoke void @_Py_Dealloc(ptr noundef nonnull %12)
          to label %_ZNSt10_Head_baseILm3EN8pybind116detail11type_casterINS0_7array_tIiLi16EEEvEELb0EED2Ev.exit.i unwind label %17

17:                                               ; preds = %16
  %18 = landingpad { ptr, i32 }
          catch ptr null
  %19 = extractvalue { ptr, i32 } %18, 0
  tail call void @__clang_call_terminate(ptr %19) #26
  unreachable

_ZNSt10_Head_baseILm3EN8pybind116detail11type_casterINS0_7array_tIiLi16EEEvEELb0EED2Ev.exit.i: ; preds = %16, %13, %_ZNSt10_Head_baseILm2EN8pybind116detail11type_casterINS0_7array_tIdLi16EEEvEELb0EED2Ev.exit
  %.val.i = load ptr, ptr %0, align 8
  %.not.i.i.i.i.i.i.i.i.i.i.i.i.i = icmp eq ptr %.val.i, null
  br i1 %.not.i.i.i.i.i.i.i.i.i.i.i.i.i, label %_ZNSt11_Tuple_implILm3EJN8pybind116detail11type_casterINS0_7array_tIiLi16EEEvEENS2_IivEENS2_IZ30test_submodule_numpy_vectorizeRNS0_7module_EE11NonPODClassvEENS2_INS3_IdLi16EEEvEEEED2Ev.exit, label %20

20:                                               ; preds = %_ZNSt10_Head_baseILm3EN8pybind116detail11type_casterINS0_7array_tIiLi16EEEvEELb0EED2Ev.exit.i
  %21 = load i64, ptr %.val.i, align 8
  %22 = add nsw i64 %21, -1
  store i64 %22, ptr %.val.i, align 8
  %.not.i.i.i.i.i.i.i.i.i.i.i.i.i.i = icmp eq i64 %22, 0
  br i1 %.not.i.i.i.i.i.i.i.i.i.i.i.i.i.i, label %23, label %_ZNSt11_Tuple_implILm3EJN8pybind116detail11type_casterINS0_7array_tIiLi16EEEvEENS2_IivEENS2_IZ30test_submodule_numpy_vectorizeRNS0_7module_EE11NonPODClassvEENS2_INS3_IdLi16EEEvEEEED2Ev.exit

23:                                               ; preds = %20
  invoke void @_Py_Dealloc(ptr noundef nonnull %.val.i)
          to label %_ZNSt11_Tuple_implILm3EJN8pybind116detail11type_casterINS0_7array_tIiLi16EEEvEENS2_IivEENS2_IZ30test_submodule_numpy_vectorizeRNS0_7module_EE11NonPODClassvEENS2_INS3_IdLi16EEEvEEEED2Ev.exit unwind label %24

24:                                               ; preds = %23
  %25 = landingpad { ptr, i32 }
          catch ptr null
  %26 = extractvalue { ptr, i32 } %25, 0
  tail call void @__clang_call_terminate(ptr %26) #26
  unreachable

_ZNSt11_Tuple_implILm3EJN8pybind116detail11type_casterINS0_7array_tIiLi16EEEvEENS2_IivEENS2_IZ30test_submodule_numpy_vectorizeRNS0_7module_EE11NonPODClassvEENS2_INS3_IdLi16EEEvEEEED2Ev.exit: ; preds = %_ZNSt10_Head_baseILm3EN8pybind116detail11type_casterINS0_7array_tIiLi16EEEvEELb0EED2Ev.exit.i, %20, %23
  ret void
}